target datalayout = "e-m:e-p270:32:32-p271:32:32-p272:64:64-i64:64-i128:128-f80:128-n8:16:32:64-S128"
target triple = "x86_64-pc-linux-gnu"

@.str.3 = private unnamed_addr constant [2 x i8] c"_\00", align 1

; Function Attrs: nounwind uwtable
define internal ptr @pmix_mca_base_alias_generate_name(ptr noundef %0, ptr noundef %1, ptr noundef %2) #0 {
  %4 = alloca ptr, align 8
  %5 = alloca ptr, align 8
  %6 = alloca ptr, align 8
  %7 = alloca ptr, align 8
  %8 = alloca i64, align 8
  %9 = alloca i64, align 8
  %10 = alloca i64, align 8
  %11 = alloca i64, align 8
  %12 = alloca ptr, align 8
  %13 = alloca i32, align 4
  store ptr %0, ptr %5, align 8, !tbaa !40
  store ptr %1, ptr %6, align 8, !tbaa !40
  store ptr %2, ptr %7, align 8, !tbaa !40
  call void @llvm.lifetime.start.p0(i64 8, ptr %8) #12
  %14 = load ptr, ptr %5, align 8, !tbaa !40
  %15 = icmp ne ptr %14, null
  br i1 %15, label %16, label %19

16:                                               ; preds = %3
  %17 = load ptr, ptr %5, align 8, !tbaa !40
  %18 = call i64 @strlen(ptr noundef %17) #15
  br label %20

19:                                               ; preds = %3
  br label %20

20:                                               ; preds = %19, %16
  %21 = phi i64 [ %18, %16 ], [ 0, %19 ]
  store i64 %21, ptr %8, align 8, !tbaa !42
  call void @llvm.lifetime.start.p0(i64 8, ptr %9) #12
  %22 = load ptr, ptr %6, align 8, !tbaa !40
  %23 = icmp ne ptr %22, null
  br i1 %23, label %24, label %27

24:                                               ; preds = %20
  %25 = load ptr, ptr %6, align 8, !tbaa !40
  %26 = call i64 @strlen(ptr noundef %25) #15
  br label %28

27:                                               ; preds = %20
  br label %28

28:                                               ; preds = %27, %24
  %29 = phi i64 [ %26, %24 ], [ 0, %27 ]
  store i64 %29, ptr %9, align 8, !tbaa !42
  call void @llvm.lifetime.start.p0(i64 8, ptr %10) #12
  %30 = load ptr, ptr %7, align 8, !tbaa !40
  %31 = call i64 @strlen(ptr noundef %30) #15
  store i64 %31, ptr %10, align 8, !tbaa !42
  call void @llvm.lifetime.start.p0(i64 8, ptr %11) #12
  %32 = load i64, ptr %8, align 8, !tbaa !42
  %33 = load i64, ptr %9, align 8, !tbaa !42
  %34 = add i64 %32, %33
  %35 = load i64, ptr %10, align 8, !tbaa !42
  %36 = add i64 %34, %35
  %37 = add i64 %36, 2
  store i64 %37, ptr %11, align 8, !tbaa !42
  call void @llvm.lifetime.start.p0(i64 8, ptr %12) #12
  %38 = load i64, ptr %11, align 8, !tbaa !42
  %39 = add i64 %38, 1
  %40 = call noalias ptr @calloc(i64 noundef 1, i64 noundef %39) #16
  store ptr %40, ptr %12, align 8, !tbaa !40
  %41 = load ptr, ptr %12, align 8, !tbaa !40
  %42 = icmp eq ptr null, %41
  br i1 %42, label %43, label %45

43:                                               ; preds = %28
  %44 = load ptr, ptr %12, align 8, !tbaa !40
  store ptr %44, ptr %4, align 8
  store i32 1, ptr %13, align 4
  br label %79

45:                                               ; preds = %28
  %46 = load i64, ptr %8, align 8, !tbaa !42
  %47 = icmp ne i64 %46, 0
  br i1 %47, label %48, label %59

48:                                               ; preds = %45
  %49 = load ptr, ptr %12, align 8, !tbaa !40
  %50 = load ptr, ptr %5, align 8, !tbaa !40
  %51 = load i64, ptr %11, align 8, !tbaa !42
  %52 = call ptr @strncat(ptr noundef %49, ptr noundef %50, i64 noundef %51) #12
  %53 = load ptr, ptr %12, align 8, !tbaa !40
  %54 = call ptr @strcat(ptr noundef %53, ptr noundef @.str.3) #12
  %55 = load i64, ptr %8, align 8, !tbaa !42
  %56 = add i64 %55, 1
  %57 = load i64, ptr %11, align 8, !tbaa !42
  %58 = sub i64 %57, %56
  store i64 %58, ptr %11, align 8, !tbaa !42
  br label %59

59:                                               ; preds = %48, %45
  %60 = load i64, ptr %9, align 8, !tbaa !42
  %61 = icmp ne i64 %60, 0
  br i1 %61, label %62, label %73

62:                                               ; preds = %59
  %63 = load ptr, ptr %12, align 8, !tbaa !40
  %64 = load ptr, ptr %6, align 8, !tbaa !40
  %65 = load i64, ptr %11, align 8, !tbaa !42
  %66 = call ptr @strncat(ptr noundef %63, ptr noundef %64, i64 noundef %65) #12
  %67 = load ptr, ptr %12, align 8, !tbaa !40
  %68 = call ptr @strcat(ptr noundef %67, ptr noundef @.str.3) #12
  %69 = load i64, ptr %9, align 8, !tbaa !42
  %70 = add i64 %69, 1
  %71 = load i64, ptr %11, align 8, !tbaa !42
  %72 = sub i64 %71, %70
  store i64 %72, ptr %11, align 8, !tbaa !42
  br label %73

73:                                               ; preds = %62, %59
  %74 = load ptr, ptr %12, align 8, !tbaa !40
  %75 = load ptr, ptr %7, align 8, !tbaa !40
  %76 = load i64, ptr %11, align 8, !tbaa !42
  %77 = call ptr @strncat(ptr noundef %74, ptr noundef %75, i64 noundef %76) #12
  %78 = load ptr, ptr %12, align 8, !tbaa !40
  store ptr %78, ptr %4, align 8
  store i32 1, ptr %13, align 4
  br label %79

79:                                               ; preds = %73, %43
  call void @llvm.lifetime.end.p0(i64 8, ptr %12) #12
  call void @llvm.lifetime.end.p0(i64 8, ptr %11) #12
  call void @llvm.lifetime.end.p0(i64 8, ptr %10) #12
  call void @llvm.lifetime.end.p0(i64 8, ptr %9) #12
  call void @llvm.lifetime.end.p0(i64 8, ptr %8) #12
  %80 = load ptr, ptr %4, align 8
  ret ptr %80
}