; Function Attrs: mustprogress nofree nounwind willreturn uwtable
define internal fastcc noundef ptr @pmix_mca_base_alias_generate_name(ptr noundef readonly captures(address_is_null) %0, ptr noundef readonly captures(address_is_null) %1, ptr noundef nonnull readonly captures(none) %2) unnamed_addr #6 {
  %.not = icmp eq ptr %0, null
  br i1 %.not, label %6, label %4

4:                                                ; preds = %3
  %5 = tail call i64 @strlen(ptr noundef nonnull dereferenceable(1) %0) #22
  br label %6

6:                                                ; preds = %3, %4
  %7 = phi i64 [ %5, %4 ], [ 0, %3 ]
  %.not34 = icmp eq ptr %1, null
  br i1 %.not34, label %10, label %8

8:                                                ; preds = %6
  %9 = tail call i64 @strlen(ptr noundef nonnull dereferenceable(1) %1) #22
  br label %10

10:                                               ; preds = %6, %8
  %11 = phi i64 [ %9, %8 ], [ 0, %6 ]
  %12 = tail call i64 @strlen(ptr noundef nonnull dereferenceable(1) %2) #22
  %13 = add i64 %11, %7
  %14 = add i64 %13, %12
  %15 = add i64 %14, 2
  %16 = add i64 %14, 3
  %17 = tail call noalias ptr @calloc(i64 noundef 1, i64 noundef %16) #23
  %18 = icmp eq ptr %17, null
  br i1 %18, label %29, label %19

19:                                               ; preds = %10
  %.not35 = icmp eq i64 %7, 0
  br i1 %.not35, label %23, label %20

20:                                               ; preds = %19
  %21 = tail call ptr @strncat(ptr noundef nonnull dereferenceable(1) %17, ptr noundef %0, i64 noundef %15) #17
  %strlen = tail call i64 @strlen(ptr nonnull dereferenceable(1) %17)
  %endptr = getelementptr inbounds i8, ptr %17, i64 %strlen
  store i16 95, ptr %endptr, align 1
  %.neg = xor i64 %7, -1
  %22 = add i64 %15, %.neg
  br label %23

23:                                               ; preds = %20, %19
  %.029 = phi i64 [ %22, %20 ], [ %15, %19 ]
  %.not36 = icmp eq i64 %11, 0
  br i1 %.not36, label %27, label %24

24:                                               ; preds = %23
  %25 = tail call ptr @strncat(ptr noundef nonnull dereferenceable(1) %17, ptr noundef %1, i64 noundef %.029) #17
  %strlen37 = tail call i64 @strlen(ptr nonnull dereferenceable(1) %17)
  %endptr38 = getelementptr inbounds i8, ptr %17, i64 %strlen37
  store i16 95, ptr %endptr38, align 1
  %.neg39 = xor i64 %11, -1
  %26 = add i64 %.029, %.neg39
  br label %27

27:                                               ; preds = %24, %23
  %.1 = phi i64 [ %26, %24 ], [ %.029, %23 ]
  %28 = tail call ptr @strncat(ptr noundef nonnull dereferenceable(1) %17, ptr noundef nonnull %2, i64 noundef %.1) #17
  br label %29

29:                                               ; preds = %10, %27
  ret ptr %17
}